; Function Attrs: mustprogress nofree norecurse nosync nounwind willreturn memory(argmem: write) uwtable
define hidden void @_ZN7datalog15mk_simple_joinsC2ERNS_7contextE(ptr nocapture noundef nonnull writeonly align 8 dereferenceable(40) %this, ptr noundef nonnull align 8 dereferenceable(3556) %ctx) unnamed_addr #3 align 2 personality ptr @__gxx_personality_v0 {
entry:
  %m_priority.i = getelementptr inbounds i8, ptr %this, i64 8
  store i32 1000, ptr %m_priority.i, align 8
  %m_can_destratify_negation.i = getelementptr inbounds i8, ptr %this, i64 12
  store i8 0, ptr %m_can_destratify_negation.i, align 4
  %m_transformer.i = getelementptr inbounds i8, ptr %this, i64 16
  store ptr null, ptr %m_transformer.i, align 8
  store ptr getelementptr inbounds ({ [6 x ptr] }, ptr @_ZTVN7datalog15mk_simple_joinsE, i64 0, i32 0, i64 2), ptr %this, align 8
  %m_context = getelementptr inbounds i8, ptr %this, i64 24
  store ptr %ctx, ptr %m_context, align 8
  %rm = getelementptr inbounds i8, ptr %this, i64 32
  %m_rule_manager.i = getelementptr inbounds i8, ptr %ctx, i64 656
  store ptr %m_rule_manager.i, ptr %rm, align 8
  ret void
}